target datalayout = "e-m:e-p270:32:32-p271:32:32-p272:64:64-i64:64-i128:128-f80:128-n8:16:32:64-S128"
target triple = "x86_64-pc-linux-gnu"

%struct.Gia_Man_t_ = type { ptr, ptr, i32, i32, i32, i32, ptr, ptr, i32, i32, i32, ptr, ptr, %struct.Vec_Int_t_, %struct.Vec_Int_t_, i32, i32, i32, %struct.Vec_Int_t_, ptr, ptr, ptr, i32, i32, i32, i32, ptr, ptr, ptr, ptr, ptr, i32, i32, ptr, i32, ptr, ptr, ptr, ptr, ptr, ptr, ptr, ptr, ptr, ptr, ptr, ptr, ptr, ptr, ptr, ptr, ptr, ptr, %struct.Vec_Int_t_, %struct.Vec_Int_t_, ptr, ptr, ptr, ptr, ptr, ptr, ptr, ptr, ptr, ptr, ptr, ptr, ptr, ptr, ptr, ptr, ptr, ptr, ptr, ptr, ptr, i32, float, float, ptr, ptr, i32, ptr, ptr, ptr, ptr, ptr, ptr, ptr, ptr, ptr, ptr, ptr, ptr, ptr, ptr, ptr, i64, i64, ptr, ptr, i32, i32, i32, i32, i32, i32, i32, i32, i32, i32, i32, i32, ptr, ptr, ptr, ptr, ptr, ptr, ptr, ptr, i32, i32, i32, ptr, i32, i32, ptr, ptr, ptr, ptr, ptr, ptr, i32, i32, ptr, %struct.Vec_Int_t_, %struct.Vec_Int_t_, %struct.Vec_Int_t_, ptr, ptr, ptr, i32, i32, i32, i32, ptr, ptr, ptr, ptr, ptr }
%struct.Vec_Int_t_ = type { i32, i32, ptr }
%struct.Vec_Str_t_ = type { i32, i32, ptr }

; Function Attrs: inlinehint nounwind uwtable
define internal ptr @Vec_IntEntryP(ptr noundef %0, i32 noundef %1) #2 {
  %3 = alloca ptr, align 8
  %4 = alloca i32, align 4
  store ptr %0, ptr %3, align 8, !tbaa !61
  store i32 %1, ptr %4, align 4, !tbaa !8
  %5 = load ptr, ptr %3, align 8, !tbaa !61
  %6 = getelementptr inbounds nuw %struct.Vec_Int_t_, ptr %5, i32 0, i32 2
  %7 = load ptr, ptr %6, align 8, !tbaa !63
  %8 = load i32, ptr %4, align 4, !tbaa !8
  %9 = sext i32 %8 to i64
  %10 = getelementptr inbounds i32, ptr %7, i64 %9
  ret ptr %10
}

; Function Attrs: inlinehint nounwind uwtable
define internal i32 @Vec_IntEntry(ptr noundef %0, i32 noundef %1) #2 {
  %3 = alloca ptr, align 8
  %4 = alloca i32, align 4
  store ptr %0, ptr %3, align 8, !tbaa !61
  store i32 %1, ptr %4, align 4, !tbaa !8
  %5 = load ptr, ptr %3, align 8, !tbaa !61
  %6 = getelementptr inbounds nuw %struct.Vec_Int_t_, ptr %5, i32 0, i32 2
  %7 = load ptr, ptr %6, align 8, !tbaa !63
  %8 = load i32, ptr %4, align 4, !tbaa !8
  %9 = sext i32 %8 to i64
  %10 = getelementptr inbounds i32, ptr %7, i64 %9
  %11 = load i32, ptr %10, align 4, !tbaa !8
  ret i32 %11
}

; Function Attrs: inlinehint nounwind uwtable
define internal ptr @Vec_StrAllocArray(ptr noundef %0, i32 noundef %1) #2 {
  %3 = alloca ptr, align 8
  %4 = alloca i32, align 4
  %5 = alloca ptr, align 8
  store ptr %0, ptr %3, align 8, !tbaa !10
  store i32 %1, ptr %4, align 4, !tbaa !8
  call void @llvm.lifetime.start.p0(i64 8, ptr %5) #10
  %6 = call noalias ptr @malloc(i64 noundef 16) #12
  store ptr %6, ptr %5, align 8, !tbaa !50
  %7 = load i32, ptr %4, align 4, !tbaa !8
  %8 = load ptr, ptr %5, align 8, !tbaa !50
  %9 = getelementptr inbounds nuw %struct.Vec_Str_t_, ptr %8, i32 0, i32 1
  store i32 %7, ptr %9, align 4, !tbaa !51
  %10 = load i32, ptr %4, align 4, !tbaa !8
  %11 = load ptr, ptr %5, align 8, !tbaa !50
  %12 = getelementptr inbounds nuw %struct.Vec_Str_t_, ptr %11, i32 0, i32 0
  store i32 %10, ptr %12, align 8, !tbaa !53
  %13 = load ptr, ptr %3, align 8, !tbaa !10
  %14 = load ptr, ptr %5, align 8, !tbaa !50
  %15 = getelementptr inbounds nuw %struct.Vec_Str_t_, ptr %14, i32 0, i32 2
  store ptr %13, ptr %15, align 8, !tbaa !54
  %16 = load ptr, ptr %5, align 8, !tbaa !50
  call void @llvm.lifetime.end.p0(i64 8, ptr %5) #10
  ret ptr %16
}

; Function Attrs: inlinehint nounwind uwtable
define internal ptr @Gia_ObjLutFanins(ptr noundef %0, i32 noundef %1) #2 {
  %3 = alloca ptr, align 8
  %4 = alloca i32, align 4
  store ptr %0, ptr %3, align 8, !tbaa !20
  store i32 %1, ptr %4, align 4, !tbaa !8
  %5 = load ptr, ptr %3, align 8, !tbaa !20
  %6 = getelementptr inbounds nuw %struct.Gia_Man_t_, ptr %5, i32 0, i32 37
  %7 = load ptr, ptr %6, align 8, !tbaa !60
  %8 = load ptr, ptr %3, align 8, !tbaa !20
  %9 = getelementptr inbounds nuw %struct.Gia_Man_t_, ptr %8, i32 0, i32 37
  %10 = load ptr, ptr %9, align 8, !tbaa !60
  %11 = load i32, ptr %4, align 4, !tbaa !8
  %12 = call i32 @Vec_IntEntry(ptr noundef %10, i32 noundef %11)
  %13 = call ptr @Vec_IntEntryP(ptr noundef %7, i32 noundef %12)
  %14 = getelementptr inbounds i32, ptr %13, i64 1
  ret ptr %14
}

; Function Attrs: inlinehint nounwind uwtable
define internal void @Gia_AigerWriteInt(ptr noundef %0, i32 noundef %1) #2 {
  %3 = alloca ptr, align 8
  %4 = alloca i32, align 4
  %5 = alloca i32, align 4
  store ptr %0, ptr %3, align 8, !tbaa !10
  store i32 %1, ptr %4, align 4, !tbaa !8
  call void @llvm.lifetime.start.p0(i64 4, ptr %5) #10
  store i32 3, ptr %5, align 4, !tbaa !8
  br label %6

6:                                                ; preds = %18, %2
  %7 = load i32, ptr %5, align 4, !tbaa !8
  %8 = icmp sge i32 %7, 0
  br i1 %8, label %9, label %21

9:                                                ; preds = %6
  %10 = load i32, ptr %4, align 4, !tbaa !8
  %11 = load i32, ptr %5, align 4, !tbaa !8
  %12 = mul nsw i32 8, %11
  %13 = ashr i32 %10, %12
  %14 = and i32 %13, 255
  %15 = trunc i32 %14 to i8
  %16 = load ptr, ptr %3, align 8, !tbaa !10
  %17 = getelementptr inbounds nuw i8, ptr %16, i32 1
  store ptr %17, ptr %3, align 8, !tbaa !10
  store i8 %15, ptr %16, align 1, !tbaa !17
  br label %18

18:                                               ; preds = %9
  %19 = load i32, ptr %5, align 4, !tbaa !8
  %20 = add nsw i32 %19, -1
  store i32 %20, ptr %5, align 4, !tbaa !8
  br label %6, !llvm.loop !49

21:                                               ; preds = %6
  call void @llvm.lifetime.end.p0(i64 4, ptr %5) #10
  ret void
}

; Function Attrs: inlinehint nounwind uwtable
define internal i32 @Abc_MaxInt(i32 noundef %0, i32 noundef %1) #2 {
  %3 = alloca i32, align 4
  %4 = alloca i32, align 4
  store i32 %0, ptr %3, align 4, !tbaa !8
  store i32 %1, ptr %4, align 4, !tbaa !8
  %5 = load i32, ptr %3, align 4, !tbaa !8
  %6 = load i32, ptr %4, align 4, !tbaa !8
  %7 = icmp sgt i32 %5, %6
  br i1 %7, label %8, label %10

8:                                                ; preds = %2
  %9 = load i32, ptr %3, align 4, !tbaa !8
  br label %12

10:                                               ; preds = %2
  %11 = load i32, ptr %4, align 4, !tbaa !8
  br label %12

12:                                               ; preds = %10, %8
  %13 = phi i32 [ %9, %8 ], [ %11, %10 ]
  ret i32 %13
}

; Function Attrs: inlinehint nounwind uwtable
define internal i32 @Gia_ObjLutSize(ptr noundef %0, i32 noundef %1) #2 {
  %3 = alloca ptr, align 8
  %4 = alloca i32, align 4
  store ptr %0, ptr %3, align 8, !tbaa !20
  store i32 %1, ptr %4, align 4, !tbaa !8
  %5 = load ptr, ptr %3, align 8, !tbaa !20
  %6 = getelementptr inbounds nuw %struct.Gia_Man_t_, ptr %5, i32 0, i32 37
  %7 = load ptr, ptr %6, align 8, !tbaa !60
  %8 = load ptr, ptr %3, align 8, !tbaa !20
  %9 = getelementptr inbounds nuw %struct.Gia_Man_t_, ptr %8, i32 0, i32 37
  %10 = load ptr, ptr %9, align 8, !tbaa !60
  %11 = load i32, ptr %4, align 4, !tbaa !8
  %12 = call i32 @Vec_IntEntry(ptr noundef %10, i32 noundef %11)
  %13 = call i32 @Vec_IntEntry(ptr noundef %7, i32 noundef %12)
  ret i32 %13
}

; Function Attrs: inlinehint nounwind uwtable
define internal i32 @Gia_ObjIsLut(ptr noundef %0, i32 noundef %1) #2 {
  %3 = alloca ptr, align 8
  %4 = alloca i32, align 4
  store ptr %0, ptr %3, align 8, !tbaa !20
  store i32 %1, ptr %4, align 4, !tbaa !8
  %5 = load ptr, ptr %3, align 8, !tbaa !20
  %6 = getelementptr inbounds nuw %struct.Gia_Man_t_, ptr %5, i32 0, i32 37
  %7 = load ptr, ptr %6, align 8, !tbaa !60
  %8 = load i32, ptr %4, align 4, !tbaa !8
  %9 = call i32 @Vec_IntEntry(ptr noundef %7, i32 noundef %8)
  %10 = icmp ne i32 %9, 0
  %11 = zext i1 %10 to i32
  ret i32 %11
}

; Function Attrs: inlinehint nounwind uwtable
define internal i32 @Gia_ManObjNum(ptr noundef %0) #2 {
  %2 = alloca ptr, align 8
  store ptr %0, ptr %2, align 8, !tbaa !20
  %3 = load ptr, ptr %2, align 8, !tbaa !20
  %4 = getelementptr inbounds nuw %struct.Gia_Man_t_, ptr %3, i32 0, i32 4
  %5 = load i32, ptr %4, align 8, !tbaa !29
  ret i32 %5
}

; Function Attrs: nounwind uwtable
define ptr @Gia_AigerWriteMappingDoc(ptr noundef %0) #0 {
  %2 = alloca ptr, align 8
  %3 = alloca ptr, align 8
  %4 = alloca i32, align 4
  %5 = alloca i32, align 4
  %6 = alloca i32, align 4
  %7 = alloca i32, align 4
  %8 = alloca i32, align 4
  %9 = alloca i32, align 4
  %10 = alloca i32, align 4
  store ptr %0, ptr %2, align 8, !tbaa !20
  call void @llvm.lifetime.start.p0(i64 8, ptr %3) #10
  call void @llvm.lifetime.start.p0(i64 4, ptr %4) #10
  call void @llvm.lifetime.start.p0(i64 4, ptr %5) #10
  call void @llvm.lifetime.start.p0(i64 4, ptr %6) #10
  call void @llvm.lifetime.start.p0(i64 4, ptr %7) #10
  store i32 0, ptr %7, align 4, !tbaa !8
  call void @llvm.lifetime.start.p0(i64 4, ptr %8) #10
  store i32 0, ptr %8, align 4, !tbaa !8
  call void @llvm.lifetime.start.p0(i64 4, ptr %9) #10
  store i32 2, ptr %9, align 4, !tbaa !8
  call void @llvm.lifetime.start.p0(i64 4, ptr %10) #10
  store i32 0, ptr %10, align 4, !tbaa !8
  store i32 1, ptr %4, align 4, !tbaa !8
  br label %11

11:                                               ; preds = %37, %1
  %12 = load i32, ptr %4, align 4, !tbaa !8
  %13 = load ptr, ptr %2, align 8, !tbaa !20
  %14 = call i32 @Gia_ManObjNum(ptr noundef %13)
  %15 = icmp slt i32 %12, %14
  br i1 %15, label %16, label %40

16:                                               ; preds = %11
  %17 = load ptr, ptr %2, align 8, !tbaa !20
  %18 = load i32, ptr %4, align 4, !tbaa !8
  %19 = call i32 @Gia_ObjIsLut(ptr noundef %17, i32 noundef %18)
  %20 = icmp ne i32 %19, 0
  br i1 %20, label %22, label %21

21:                                               ; preds = %16
  br label %36

22:                                               ; preds = %16
  %23 = load i32, ptr %7, align 4, !tbaa !8
  %24 = add nsw i32 %23, 1
  store i32 %24, ptr %7, align 4, !tbaa !8
  %25 = load ptr, ptr %2, align 8, !tbaa !20
  %26 = load i32, ptr %4, align 4, !tbaa !8
  %27 = call i32 @Gia_ObjLutSize(ptr noundef %25, i32 noundef %26)
  %28 = add nsw i32 %27, 2
  %29 = load i32, ptr %9, align 4, !tbaa !8
  %30 = add nsw i32 %29, %28
  store i32 %30, ptr %9, align 4, !tbaa !8
  %31 = load i32, ptr %8, align 4, !tbaa !8
  %32 = load ptr, ptr %2, align 8, !tbaa !20
  %33 = load i32, ptr %4, align 4, !tbaa !8
  %34 = call i32 @Gia_ObjLutSize(ptr noundef %32, i32 noundef %33)
  %35 = call i32 @Abc_MaxInt(i32 noundef %31, i32 noundef %34)
  store i32 %35, ptr %8, align 4, !tbaa !8
  br label %36

36:                                               ; preds = %22, %21
  br label %37

37:                                               ; preds = %36
  %38 = load i32, ptr %4, align 4, !tbaa !8
  %39 = add nsw i32 %38, 1
  store i32 %39, ptr %4, align 4, !tbaa !8
  br label %11, !llvm.loop !67

40:                                               ; preds = %11
  %41 = load i32, ptr %9, align 4, !tbaa !8
  %42 = mul nsw i32 4, %41
  %43 = sext i32 %42 to i64
  %44 = mul i64 1, %43
  %45 = call noalias ptr @malloc(i64 noundef %44) #12
  store ptr %45, ptr %3, align 8, !tbaa !10
  %46 = load ptr, ptr %3, align 8, !tbaa !10
  %47 = load i32, ptr %10, align 4, !tbaa !8
  %48 = add nsw i32 %47, 1
  store i32 %48, ptr %10, align 4, !tbaa !8
  %49 = mul nsw i32 4, %47
  %50 = sext i32 %49 to i64
  %51 = getelementptr inbounds i8, ptr %46, i64 %50
  %52 = load i32, ptr %7, align 4, !tbaa !8
  call void @Gia_AigerWriteInt(ptr noundef %51, i32 noundef %52)
  %53 = load ptr, ptr %3, align 8, !tbaa !10
  %54 = load i32, ptr %10, align 4, !tbaa !8
  %55 = add nsw i32 %54, 1
  store i32 %55, ptr %10, align 4, !tbaa !8
  %56 = mul nsw i32 4, %54
  %57 = sext i32 %56 to i64
  %58 = getelementptr inbounds i8, ptr %53, i64 %57
  %59 = load i32, ptr %8, align 4, !tbaa !8
  call void @Gia_AigerWriteInt(ptr noundef %58, i32 noundef %59)
  store i32 1, ptr %4, align 4, !tbaa !8
  br label %60

60:                                               ; preds = %117, %40
  %61 = load i32, ptr %4, align 4, !tbaa !8
  %62 = load ptr, ptr %2, align 8, !tbaa !20
  %63 = call i32 @Gia_ManObjNum(ptr noundef %62)
  %64 = icmp slt i32 %61, %63
  br i1 %64, label %65, label %120

65:                                               ; preds = %60
  %66 = load ptr, ptr %2, align 8, !tbaa !20
  %67 = load i32, ptr %4, align 4, !tbaa !8
  %68 = call i32 @Gia_ObjIsLut(ptr noundef %66, i32 noundef %67)
  %69 = icmp ne i32 %68, 0
  br i1 %69, label %71, label %70

70:                                               ; preds = %65
  br label %116

71:                                               ; preds = %65
  %72 = load ptr, ptr %3, align 8, !tbaa !10
  %73 = load i32, ptr %10, align 4, !tbaa !8
  %74 = add nsw i32 %73, 1
  store i32 %74, ptr %10, align 4, !tbaa !8
  %75 = mul nsw i32 4, %73
  %76 = sext i32 %75 to i64
  %77 = getelementptr inbounds i8, ptr %72, i64 %76
  %78 = load i32, ptr %4, align 4, !tbaa !8
  call void @Gia_AigerWriteInt(ptr noundef %77, i32 noundef %78)
  %79 = load ptr, ptr %3, align 8, !tbaa !10
  %80 = load i32, ptr %10, align 4, !tbaa !8
  %81 = add nsw i32 %80, 1
  store i32 %81, ptr %10, align 4, !tbaa !8
  %82 = mul nsw i32 4, %80
  %83 = sext i32 %82 to i64
  %84 = getelementptr inbounds i8, ptr %79, i64 %83
  %85 = load ptr, ptr %2, align 8, !tbaa !20
  %86 = load i32, ptr %4, align 4, !tbaa !8
  %87 = call i32 @Gia_ObjLutSize(ptr noundef %85, i32 noundef %86)
  call void @Gia_AigerWriteInt(ptr noundef %84, i32 noundef %87)
  store i32 0, ptr %5, align 4, !tbaa !8
  br label %88

88:                                               ; preds = %112, %71
  %89 = load i32, ptr %5, align 4, !tbaa !8
  %90 = load ptr, ptr %2, align 8, !tbaa !20
  %91 = load i32, ptr %4, align 4, !tbaa !8
  %92 = call i32 @Gia_ObjLutSize(ptr noundef %90, i32 noundef %91)
  %93 = icmp slt i32 %89, %92
  br i1 %93, label %94, label %102

94:                                               ; preds = %88
  %95 = load ptr, ptr %2, align 8, !tbaa !20
  %96 = load i32, ptr %4, align 4, !tbaa !8
  %97 = call ptr @Gia_ObjLutFanins(ptr noundef %95, i32 noundef %96)
  %98 = load i32, ptr %5, align 4, !tbaa !8
  %99 = sext i32 %98 to i64
  %100 = getelementptr inbounds i32, ptr %97, i64 %99
  %101 = load i32, ptr %100, align 4, !tbaa !8
  store i32 %101, ptr %6, align 4, !tbaa !8
  br label %102

102:                                              ; preds = %94, %88
  %103 = phi i1 [ false, %88 ], [ true, %94 ]
  br i1 %103, label %104, label %115

104:                                              ; preds = %102
  %105 = load ptr, ptr %3, align 8, !tbaa !10
  %106 = load i32, ptr %10, align 4, !tbaa !8
  %107 = add nsw i32 %106, 1
  store i32 %107, ptr %10, align 4, !tbaa !8
  %108 = mul nsw i32 4, %106
  %109 = sext i32 %108 to i64
  %110 = getelementptr inbounds i8, ptr %105, i64 %109
  %111 = load i32, ptr %6, align 4, !tbaa !8
  call void @Gia_AigerWriteInt(ptr noundef %110, i32 noundef %111)
  br label %112

112:                                              ; preds = %104
  %113 = load i32, ptr %5, align 4, !tbaa !8
  %114 = add nsw i32 %113, 1
  store i32 %114, ptr %5, align 4, !tbaa !8
  br label %88, !llvm.loop !68

115:                                              ; preds = %102
  br label %116

116:                                              ; preds = %115, %70
  br label %117

117:                                              ; preds = %116
  %118 = load i32, ptr %4, align 4, !tbaa !8
  %119 = add nsw i32 %118, 1
  store i32 %119, ptr %4, align 4, !tbaa !8
  br label %60, !llvm.loop !69

120:                                              ; preds = %60
  %121 = load ptr, ptr %3, align 8, !tbaa !10
  %122 = load i32, ptr %9, align 4, !tbaa !8
  %123 = mul nsw i32 4, %122
  %124 = call ptr @Vec_StrAllocArray(ptr noundef %121, i32 noundef %123)
  call void @llvm.lifetime.end.p0(i64 4, ptr %10) #10
  call void @llvm.lifetime.end.p0(i64 4, ptr %9) #10
  call void @llvm.lifetime.end.p0(i64 4, ptr %8) #10
  call void @llvm.lifetime.end.p0(i64 4, ptr %7) #10
  call void @llvm.lifetime.end.p0(i64 4, ptr %6) #10
  call void @llvm.lifetime.end.p0(i64 4, ptr %5) #10
  call void @llvm.lifetime.end.p0(i64 4, ptr %4) #10
  call void @llvm.lifetime.end.p0(i64 8, ptr %3) #10
  ret ptr %124
}