; Function Attrs: nofree nounwind memory(readwrite, argmem: read) uwtable
define noalias noundef ptr @Gia_AigerWriteMappingDoc(ptr noundef readonly captures(none) %0) local_unnamed_addr #6 {
  %2 = getelementptr i8, ptr %0, i64 24
  %.val52 = load i32, ptr %2, align 8, !tbaa !14
  %3 = icmp sgt i32 %.val52, 1
  br i1 %3, label %.lr.ph, label %._crit_edge

.lr.ph:                                           ; preds = %1
  %4 = getelementptr i8, ptr %0, i64 264
  %.val54 = load ptr, ptr %4, align 8, !tbaa !51
  %5 = getelementptr i8, ptr %.val54, i64 8
  %.val54.val = load ptr, ptr %5, align 8, !tbaa !52
  %wide.trip.count = zext nneg i32 %.val52 to i64
  br label %6

6:                                                ; preds = %.lr.ph, %17
  %indvars.iv = phi i64 [ 1, %.lr.ph ], [ %indvars.iv.next, %17 ]
  %.04280 = phi i32 [ 2, %.lr.ph ], [ %.143, %17 ]
  %.04479 = phi i32 [ 0, %.lr.ph ], [ %.145, %17 ]
  %.04678 = phi i32 [ 0, %.lr.ph ], [ %.147, %17 ]
  %7 = getelementptr inbounds nuw i32, ptr %.val54.val, i64 %indvars.iv
  %8 = load i32, ptr %7, align 4, !tbaa !37
  %.not = icmp eq i32 %8, 0
  br i1 %.not, label %17, label %9

9:                                                ; preds = %6
  %10 = add nsw i32 %.04678, 1
  %11 = sext i32 %8 to i64
  %12 = getelementptr inbounds i32, ptr %.val54.val, i64 %11
  %13 = load i32, ptr %12, align 4, !tbaa !37
  %14 = add i32 %.04280, 2
  %15 = add i32 %14, %13
  %16 = tail call noundef i32 @llvm.smax.i32(i32 %.04479, i32 %13)
  br label %17

17:                                               ; preds = %9, %6
  %.147 = phi i32 [ %10, %9 ], [ %.04678, %6 ]
  %.145 = phi i32 [ %16, %9 ], [ %.04479, %6 ]
  %.143 = phi i32 [ %15, %9 ], [ %.04280, %6 ]
  %indvars.iv.next = add nuw nsw i64 %indvars.iv, 1
  %exitcond.not = icmp eq i64 %indvars.iv.next, %wide.trip.count
  br i1 %exitcond.not, label %._crit_edge.loopexit, label %6, !llvm.loop !60

._crit_edge.loopexit:                             ; preds = %17
  %18 = shl nsw i32 %.143, 2
  br label %._crit_edge

._crit_edge:                                      ; preds = %._crit_edge.loopexit, %1
  %.046.lcssa = phi i32 [ 0, %1 ], [ %.147, %._crit_edge.loopexit ]
  %.044.lcssa = phi i32 [ 0, %1 ], [ %.145, %._crit_edge.loopexit ]
  %.042.lcssa = phi i32 [ 8, %1 ], [ %18, %._crit_edge.loopexit ]
  %19 = sext i32 %.042.lcssa to i64
  %20 = tail call noalias ptr @malloc(i64 noundef %19) #16
  br label %21

21:                                               ; preds = %21, %._crit_edge
  %.06.i = phi i32 [ 3, %._crit_edge ], [ %26, %21 ]
  %.045.i = phi ptr [ %20, %._crit_edge ], [ %25, %21 ]
  %22 = shl nsw i32 %.06.i, 3
  %23 = ashr i32 %.046.lcssa, %22
  %24 = trunc i32 %23 to i8
  %25 = getelementptr inbounds nuw i8, ptr %.045.i, i64 1
  store i8 %24, ptr %.045.i, align 1, !tbaa !8
  %26 = add nsw i32 %.06.i, -1
  %.not.i = icmp eq i32 %.06.i, 0
  br i1 %.not.i, label %Gia_AigerWriteInt.exit, label %21, !llvm.loop !44

Gia_AigerWriteInt.exit:                           ; preds = %21
  %27 = getelementptr inbounds nuw i8, ptr %20, i64 4
  br label %28

28:                                               ; preds = %28, %Gia_AigerWriteInt.exit
  %.06.i60 = phi i32 [ 3, %Gia_AigerWriteInt.exit ], [ %33, %28 ]
  %.045.i61 = phi ptr [ %27, %Gia_AigerWriteInt.exit ], [ %32, %28 ]
  %29 = shl nsw i32 %.06.i60, 3
  %30 = lshr i32 %.044.lcssa, %29
  %31 = trunc i32 %30 to i8
  %32 = getelementptr inbounds nuw i8, ptr %.045.i61, i64 1
  store i8 %31, ptr %.045.i61, align 1, !tbaa !8
  %33 = add nsw i32 %.06.i60, -1
  %.not.i62 = icmp eq i32 %.06.i60, 0
  br i1 %.not.i62, label %Gia_AigerWriteInt.exit63.preheader, label %28, !llvm.loop !44

Gia_AigerWriteInt.exit63.preheader:               ; preds = %28
  br i1 %3, label %.lr.ph91, label %Gia_AigerWriteInt.exit63._crit_edge

.lr.ph91:                                         ; preds = %Gia_AigerWriteInt.exit63.preheader
  %34 = getelementptr i8, ptr %0, i64 264
  %.val53 = load ptr, ptr %34, align 8, !tbaa !51
  %35 = getelementptr i8, ptr %.val53, i64 8
  %wide.trip.count103 = zext nneg i32 %.val52 to i64
  %.val53.val.pre = load ptr, ptr %35, align 8, !tbaa !52
  %invariant.gep = getelementptr i8, ptr %.val53.val.pre, i64 4
  br label %36

36:                                               ; preds = %.lr.ph91, %.critedge
  %indvars.iv100 = phi i64 [ 1, %.lr.ph91 ], [ %indvars.iv.next101, %.critedge ]
  %.090 = phi i32 [ 2, %.lr.ph91 ], [ %.2, %.critedge ]
  %37 = getelementptr inbounds nuw i32, ptr %.val53.val.pre, i64 %indvars.iv100
  %38 = load i32, ptr %37, align 4, !tbaa !37
  %.not76 = icmp eq i32 %38, 0
  br i1 %.not76, label %.critedge, label %39

39:                                               ; preds = %36
  %40 = shl i32 %.090, 2
  %41 = sext i32 %40 to i64
  %42 = getelementptr inbounds i8, ptr %20, i64 %41
  %43 = trunc nuw nsw i64 %indvars.iv100 to i32
  br label %44

44:                                               ; preds = %44, %39
  %.06.i64 = phi i32 [ 3, %39 ], [ %49, %44 ]
  %.045.i65 = phi ptr [ %42, %39 ], [ %48, %44 ]
  %45 = shl nsw i32 %.06.i64, 3
  %46 = lshr i32 %43, %45
  %47 = trunc i32 %46 to i8
  %48 = getelementptr inbounds nuw i8, ptr %.045.i65, i64 1
  store i8 %47, ptr %.045.i65, align 1, !tbaa !8
  %49 = add nsw i32 %.06.i64, -1
  %.not.i66 = icmp eq i32 %.06.i64, 0
  br i1 %.not.i66, label %Gia_AigerWriteInt.exit67, label %44, !llvm.loop !44

Gia_AigerWriteInt.exit67:                         ; preds = %44
  %50 = add i32 %40, 4
  %51 = sext i32 %50 to i64
  %52 = getelementptr inbounds i8, ptr %20, i64 %51
  %53 = load i32, ptr %37, align 4, !tbaa !37
  %54 = sext i32 %53 to i64
  %55 = getelementptr inbounds i32, ptr %.val53.val.pre, i64 %54
  %56 = load i32, ptr %55, align 4, !tbaa !37
  br label %57

57:                                               ; preds = %57, %Gia_AigerWriteInt.exit67
  %.06.i68 = phi i32 [ 3, %Gia_AigerWriteInt.exit67 ], [ %62, %57 ]
  %.045.i69 = phi ptr [ %52, %Gia_AigerWriteInt.exit67 ], [ %61, %57 ]
  %58 = shl nsw i32 %.06.i68, 3
  %59 = ashr i32 %56, %58
  %60 = trunc i32 %59 to i8
  %61 = getelementptr inbounds nuw i8, ptr %.045.i69, i64 1
  store i8 %60, ptr %.045.i69, align 1, !tbaa !8
  %62 = add nsw i32 %.06.i68, -1
  %.not.i70 = icmp eq i32 %.06.i68, 0
  br i1 %.not.i70, label %Gia_AigerWriteInt.exit71.preheader, label %57, !llvm.loop !44

Gia_AigerWriteInt.exit71.preheader:               ; preds = %57
  %63 = add i32 %.090, 2
  %64 = getelementptr inbounds nuw i32, ptr %.val53.val.pre, i64 %indvars.iv100
  %65 = load i32, ptr %64, align 4, !tbaa !37
  %66 = sext i32 %65 to i64
  %67 = getelementptr inbounds i32, ptr %.val53.val.pre, i64 %66
  %68 = load i32, ptr %67, align 4, !tbaa !37
  %69 = icmp sgt i32 %68, 0
  br i1 %69, label %.lr.ph87.preheader, label %.critedge

.lr.ph87.preheader:                               ; preds = %Gia_AigerWriteInt.exit71.preheader
  %70 = sext i32 %63 to i64
  %71 = getelementptr inbounds nuw i32, ptr %.val53.val.pre, i64 %indvars.iv100
  br label %.lr.ph87

.lr.ph87:                                         ; preds = %.lr.ph87.preheader, %Gia_AigerWriteInt.exit75
  %indvars.iv95 = phi i64 [ 0, %.lr.ph87.preheader ], [ %indvars.iv.next96, %Gia_AigerWriteInt.exit75 ]
  %indvars.iv93 = phi i64 [ %70, %.lr.ph87.preheader ], [ %indvars.iv.next94, %Gia_AigerWriteInt.exit75 ]
  %72 = phi i64 [ %66, %.lr.ph87.preheader ], [ %84, %Gia_AigerWriteInt.exit75 ]
  %gep = getelementptr i32, ptr %invariant.gep, i64 %72
  %73 = getelementptr inbounds nuw i32, ptr %gep, i64 %indvars.iv95
  %74 = load i32, ptr %73, align 4, !tbaa !37
  %75 = shl nsw i64 %indvars.iv93, 2
  %76 = getelementptr inbounds i8, ptr %20, i64 %75
  br label %77

77:                                               ; preds = %77, %.lr.ph87
  %.06.i72 = phi i32 [ 3, %.lr.ph87 ], [ %82, %77 ]
  %.045.i73 = phi ptr [ %76, %.lr.ph87 ], [ %81, %77 ]
  %78 = shl nsw i32 %.06.i72, 3
  %79 = ashr i32 %74, %78
  %80 = trunc i32 %79 to i8
  %81 = getelementptr inbounds nuw i8, ptr %.045.i73, i64 1
  store i8 %80, ptr %.045.i73, align 1, !tbaa !8
  %82 = add nsw i32 %.06.i72, -1
  %.not.i74 = icmp eq i32 %.06.i72, 0
  br i1 %.not.i74, label %Gia_AigerWriteInt.exit75, label %77, !llvm.loop !44

Gia_AigerWriteInt.exit75:                         ; preds = %77
  %indvars.iv.next94 = add nsw i64 %indvars.iv93, 1
  %indvars.iv.next96 = add nuw nsw i64 %indvars.iv95, 1
  %83 = load i32, ptr %71, align 4, !tbaa !37
  %84 = sext i32 %83 to i64
  %85 = getelementptr inbounds i32, ptr %.val53.val.pre, i64 %84
  %86 = load i32, ptr %85, align 4, !tbaa !37
  %87 = sext i32 %86 to i64
  %88 = icmp slt i64 %indvars.iv.next96, %87
  br i1 %88, label %.lr.ph87, label %.critedge.loopexit, !llvm.loop !61

.critedge.loopexit:                               ; preds = %Gia_AigerWriteInt.exit75
  %89 = trunc nsw i64 %indvars.iv.next94 to i32
  br label %.critedge

.critedge:                                        ; preds = %.critedge.loopexit, %Gia_AigerWriteInt.exit71.preheader, %36
  %.2 = phi i32 [ %.090, %36 ], [ %63, %Gia_AigerWriteInt.exit71.preheader ], [ %89, %.critedge.loopexit ]
  %indvars.iv.next101 = add nuw nsw i64 %indvars.iv100, 1
  %exitcond104.not = icmp eq i64 %indvars.iv.next101, %wide.trip.count103
  br i1 %exitcond104.not, label %Gia_AigerWriteInt.exit63._crit_edge, label %36, !llvm.loop !62

Gia_AigerWriteInt.exit63._crit_edge:              ; preds = %.critedge, %Gia_AigerWriteInt.exit63.preheader
  %90 = tail call noalias dereferenceable_or_null(16) ptr @malloc(i64 noundef 16) #16
  %91 = getelementptr inbounds nuw i8, ptr %90, i64 4
  store i32 %.042.lcssa, ptr %91, align 4, !tbaa !45
  store i32 %.042.lcssa, ptr %90, align 8, !tbaa !47
  %92 = getelementptr inbounds nuw i8, ptr %90, i64 8
  store ptr %20, ptr %92, align 8, !tbaa !48
  ret ptr %90
}